target datalayout = "e-m:e-p270:32:32-p271:32:32-p272:64:64-i64:64-i128:128-f80:128-n8:16:32:64-S128"
target triple = "x86_64-pc-linux-gnu"

%struct.SysScanDescData = type { ptr, ptr, ptr, ptr, ptr, ptr }

@CheckXidAlive = external global i32, align 4
@bsysscan = external global i8, align 1

; Function Attrs: nounwind uwtable
define dso_local void @systable_endscan_ordered(ptr noundef %0) #0 {
  %2 = alloca ptr, align 8
  store ptr %0, ptr %2, align 8
  %3 = load ptr, ptr %2, align 8
  %4 = getelementptr inbounds nuw %struct.SysScanDescData, ptr %3, i32 0, i32 5
  %5 = load ptr, ptr %4, align 8
  %6 = icmp ne ptr %5, null
  br i1 %6, label %7, label %13

7:                                                ; preds = %1
  %8 = load ptr, ptr %2, align 8
  %9 = getelementptr inbounds nuw %struct.SysScanDescData, ptr %8, i32 0, i32 5
  %10 = load ptr, ptr %9, align 8
  call void @ExecDropSingleTupleTableSlot(ptr noundef %10)
  %11 = load ptr, ptr %2, align 8
  %12 = getelementptr inbounds nuw %struct.SysScanDescData, ptr %11, i32 0, i32 5
  store ptr null, ptr %12, align 8
  br label %13

13:                                               ; preds = %7, %1
  %14 = load ptr, ptr %2, align 8
  %15 = getelementptr inbounds nuw %struct.SysScanDescData, ptr %14, i32 0, i32 3
  %16 = load ptr, ptr %15, align 8
  call void @index_endscan(ptr noundef %16)
  %17 = load ptr, ptr %2, align 8
  %18 = getelementptr inbounds nuw %struct.SysScanDescData, ptr %17, i32 0, i32 4
  %19 = load ptr, ptr %18, align 8
  %20 = icmp ne ptr %19, null
  br i1 %20, label %21, label %25

21:                                               ; preds = %13
  %22 = load ptr, ptr %2, align 8
  %23 = getelementptr inbounds nuw %struct.SysScanDescData, ptr %22, i32 0, i32 4
  %24 = load ptr, ptr %23, align 8
  call void @UnregisterSnapshot(ptr noundef %24)
  br label %25

25:                                               ; preds = %21, %13
  %26 = load i32, ptr @CheckXidAlive, align 4
  %27 = icmp ne i32 %26, 0
  br i1 %27, label %28, label %29

28:                                               ; preds = %25
  store i8 0, ptr @bsysscan, align 1
  br label %29

29:                                               ; preds = %28, %25
  %30 = load ptr, ptr %2, align 8
  call void @pfree(ptr noundef %30)
  ret void
}