; Function Attrs: nounwind uwtable
define dso_local void @systable_endscan_ordered(ptr noundef %0) local_unnamed_addr #0 {
  %2 = getelementptr inbounds nuw i8, ptr %0, i64 40
  %3 = load ptr, ptr %2, align 8
  %.not = icmp eq ptr %3, null
  br i1 %.not, label %5, label %4

4:                                                ; preds = %1
  tail call void @ExecDropSingleTupleTableSlot(ptr noundef nonnull %3) #7
  store ptr null, ptr %2, align 8
  br label %5

5:                                                ; preds = %4, %1
  %6 = getelementptr inbounds nuw i8, ptr %0, i64 24
  %7 = load ptr, ptr %6, align 8
  tail call void @index_endscan(ptr noundef %7) #7
  %8 = getelementptr inbounds nuw i8, ptr %0, i64 32
  %9 = load ptr, ptr %8, align 8
  %.not8 = icmp eq ptr %9, null
  br i1 %.not8, label %11, label %10

10:                                               ; preds = %5
  tail call void @UnregisterSnapshot(ptr noundef nonnull %9) #7
  br label %11

11:                                               ; preds = %10, %5
  %12 = load i32, ptr @CheckXidAlive, align 4
  %.not9 = icmp eq i32 %12, 0
  br i1 %.not9, label %14, label %13

13:                                               ; preds = %11
  store i8 0, ptr @bsysscan, align 1
  br label %14

14:                                               ; preds = %13, %11
  tail call void @pfree(ptr noundef nonnull %0) #7
  ret void
}